
sdram.elf:     file format elf32-littlearm


Disassembly of section .text:

00000000 <_start>:
   0:	e3a00453 	mov	r0, #1392508928	; 0x53000000
   4:	e3a01000 	mov	r1, #0	; 0x0
   8:	e5801000 	str	r1, [r0]
   c:	e3a00313 	mov	r0, #1275068416	; 0x4c000000
  10:	e3e01000 	mvn	r1, #0	; 0x0
  14:	e5801000 	str	r1, [r0]
  18:	e59f006c 	ldr	r0, [pc, #108]	; 8c <halt+0x4>
  1c:	e3a01005 	mov	r1, #5	; 0x5
  20:	e5801000 	str	r1, [r0]
  24:	ee110f10 	mrc	15, 0, r0, cr1, cr0, {0}
  28:	e3800103 	orr	r0, r0, #-1073741824	; 0xc0000000
  2c:	ee010f10 	mcr	15, 0, r0, cr1, cr0, {0}
  30:	e59f0058 	ldr	r0, [pc, #88]	; 90 <halt+0x8>
  34:	e59f1058 	ldr	r1, [pc, #88]	; 94 <halt+0xc>
  38:	e5801000 	str	r1, [r0]
  3c:	e3a01000 	mov	r1, #0	; 0x0
  40:	e5910000 	ldr	r0, [r1]
  44:	e5811000 	str	r1, [r1]
  48:	e5912000 	ldr	r2, [r1]
  4c:	e1510002 	cmp	r1, r2
  50:	e59fd040 	ldr	sp, [pc, #64]	; 98 <halt+0x10>
  54:	03a0da01 	moveq	sp, #4096	; 0x1000
  58:	05810000 	streq	r0, [r1]
  5c:	eb0000af 	bl	320 <sdram_init>
  60:	e59f1034 	ldr	r1, [pc, #52]	; 9c <halt+0x14>
  64:	e59f2034 	ldr	r2, [pc, #52]	; a0 <halt+0x18>
  68:	e59f3034 	ldr	r3, [pc, #52]	; a4 <halt+0x1c>

0000006c <cpy>:
  6c:	e5d14000 	ldrb	r4, [r1]
  70:	e5c24000 	strb	r4, [r2]
  74:	e2811001 	add	r1, r1, #1	; 0x1
  78:	e2822001 	add	r2, r2, #1	; 0x1
  7c:	e1520003 	cmp	r2, r3
  80:	1afffff9 	bne	6c <cpy>
  84:	eb0000fa 	bl	474 <main>

00000088 <halt>:
  88:	eafffffe 	b	88 <halt>
  8c:	4c000014 	.word	0x4c000014
  90:	4c000004 	.word	0x4c000004
  94:	0005c011 	.word	0x0005c011
  98:	40001000 	.word	0x40001000
  9c:	30000800 	.word	0x30000800
  a0:	30000000 	.word	0x30000000
  a4:	30000002 	.word	0x30000002

000000a8 <delay>:
  a8:	e52db004 	push	{fp}		; (str fp, [sp, #-4]!)
  ac:	e28db000 	add	fp, sp, #0	; 0x0
  b0:	e24dd00c 	sub	sp, sp, #12	; 0xc
  b4:	e50b0008 	str	r0, [fp, #-8]
  b8:	e51b2008 	ldr	r2, [fp, #-8]
  bc:	e3520000 	cmp	r2, #0	; 0x0
  c0:	03a03000 	moveq	r3, #0	; 0x0
  c4:	13a03001 	movne	r3, #1	; 0x1
  c8:	e20310ff 	and	r1, r3, #255	; 0xff
  cc:	e2423001 	sub	r3, r2, #1	; 0x1
  d0:	e50b3008 	str	r3, [fp, #-8]
  d4:	e3510000 	cmp	r1, #0	; 0x0
  d8:	1afffff6 	bne	b8 <delay+0x10>
  dc:	e28bd000 	add	sp, fp, #0	; 0x0
  e0:	e8bd0800 	pop	{fp}
  e4:	e12fff1e 	bx	lr

000000e8 <led_test>:
  e8:	e92d4800 	push	{fp, lr}
  ec:	e28db004 	add	fp, sp, #4	; 0x4
  f0:	e24dd008 	sub	sp, sp, #8	; 0x8
  f4:	e3a03000 	mov	r3, #0	; 0x0
  f8:	e50b300c 	str	r3, [fp, #-12]
  fc:	e3a02456 	mov	r2, #1442840576	; 0x56000000
 100:	e2822050 	add	r2, r2, #80	; 0x50
 104:	e3a03456 	mov	r3, #1442840576	; 0x56000000
 108:	e2833050 	add	r3, r3, #80	; 0x50
 10c:	e5933000 	ldr	r3, [r3]
 110:	e3c33c3f 	bic	r3, r3, #16128	; 0x3f00
 114:	e5823000 	str	r3, [r2]
 118:	e3a02456 	mov	r2, #1442840576	; 0x56000000
 11c:	e2822050 	add	r2, r2, #80	; 0x50
 120:	e3a03456 	mov	r3, #1442840576	; 0x56000000
 124:	e2833050 	add	r3, r3, #80	; 0x50
 128:	e5933000 	ldr	r3, [r3]
 12c:	e3833c15 	orr	r3, r3, #5376	; 0x1500
 130:	e5823000 	str	r3, [r2]
 134:	e51b300c 	ldr	r3, [fp, #-12]
 138:	e1e03003 	mvn	r3, r3
 13c:	e50b3008 	str	r3, [fp, #-8]
 140:	e51b3008 	ldr	r3, [fp, #-8]
 144:	e2033007 	and	r3, r3, #7	; 0x7
 148:	e50b3008 	str	r3, [fp, #-8]
 14c:	e3a02456 	mov	r2, #1442840576	; 0x56000000
 150:	e2822054 	add	r2, r2, #84	; 0x54
 154:	e3a03456 	mov	r3, #1442840576	; 0x56000000
 158:	e2833054 	add	r3, r3, #84	; 0x54
 15c:	e5933000 	ldr	r3, [r3]
 160:	e3c33070 	bic	r3, r3, #112	; 0x70
 164:	e5823000 	str	r3, [r2]
 168:	e3a02456 	mov	r2, #1442840576	; 0x56000000
 16c:	e2822054 	add	r2, r2, #84	; 0x54
 170:	e3a03456 	mov	r3, #1442840576	; 0x56000000
 174:	e2833054 	add	r3, r3, #84	; 0x54
 178:	e5931000 	ldr	r1, [r3]
 17c:	e51b3008 	ldr	r3, [fp, #-8]
 180:	e1a03203 	lsl	r3, r3, #4
 184:	e1813003 	orr	r3, r1, r3
 188:	e5823000 	str	r3, [r2]
 18c:	e3a00b61 	mov	r0, #99328	; 0x18400
 190:	e2800e2a 	add	r0, r0, #672	; 0x2a0
 194:	ebffffc3 	bl	a8 <delay>
 198:	e51b300c 	ldr	r3, [fp, #-12]
 19c:	e2833001 	add	r3, r3, #1	; 0x1
 1a0:	e50b300c 	str	r3, [fp, #-12]
 1a4:	e51b300c 	ldr	r3, [fp, #-12]
 1a8:	e3530008 	cmp	r3, #8	; 0x8
 1ac:	1affffe0 	bne	134 <led_test+0x4c>
 1b0:	e3a03000 	mov	r3, #0	; 0x0
 1b4:	e50b300c 	str	r3, [fp, #-12]
 1b8:	eaffffdd 	b	134 <led_test+0x4c>

000001bc <uart0_init>:
 1bc:	e52db004 	push	{fp}		; (str fp, [sp, #-4]!)
 1c0:	e28db000 	add	fp, sp, #0	; 0x0
 1c4:	e3a02456 	mov	r2, #1442840576	; 0x56000000
 1c8:	e2822070 	add	r2, r2, #112	; 0x70
 1cc:	e3a03456 	mov	r3, #1442840576	; 0x56000000
 1d0:	e2833070 	add	r3, r3, #112	; 0x70
 1d4:	e5933000 	ldr	r3, [r3]
 1d8:	e3c330f0 	bic	r3, r3, #240	; 0xf0
 1dc:	e5823000 	str	r3, [r2]
 1e0:	e3a02456 	mov	r2, #1442840576	; 0x56000000
 1e4:	e2822070 	add	r2, r2, #112	; 0x70
 1e8:	e3a03456 	mov	r3, #1442840576	; 0x56000000
 1ec:	e2833070 	add	r3, r3, #112	; 0x70
 1f0:	e5933000 	ldr	r3, [r3]
 1f4:	e38330a0 	orr	r3, r3, #160	; 0xa0
 1f8:	e5823000 	str	r3, [r2]
 1fc:	e3a02456 	mov	r2, #1442840576	; 0x56000000
 200:	e2822078 	add	r2, r2, #120	; 0x78
 204:	e3a03456 	mov	r3, #1442840576	; 0x56000000
 208:	e2833078 	add	r3, r3, #120	; 0x78
 20c:	e5933000 	ldr	r3, [r3]
 210:	e3c3300c 	bic	r3, r3, #12	; 0xc
 214:	e5823000 	str	r3, [r2]
 218:	e3a02245 	mov	r2, #1342177284	; 0x50000004
 21c:	e3a03005 	mov	r3, #5	; 0x5
 220:	e5823000 	str	r3, [r2]
 224:	e3a03205 	mov	r3, #1342177280	; 0x50000000
 228:	e2833028 	add	r3, r3, #40	; 0x28
 22c:	e3a0201a 	mov	r2, #26	; 0x1a
 230:	e5832000 	str	r2, [r3]
 234:	e3a02205 	mov	r2, #1342177280	; 0x50000000
 238:	e3a03003 	mov	r3, #3	; 0x3
 23c:	e5823000 	str	r3, [r2]
 240:	e28bd000 	add	sp, fp, #0	; 0x0
 244:	e8bd0800 	pop	{fp}
 248:	e12fff1e 	bx	lr

0000024c <putchar>:
 24c:	e52db004 	push	{fp}		; (str fp, [sp, #-4]!)
 250:	e28db000 	add	fp, sp, #0	; 0x0
 254:	e24dd00c 	sub	sp, sp, #12	; 0xc
 258:	e50b0008 	str	r0, [fp, #-8]
 25c:	e3a03205 	mov	r3, #1342177280	; 0x50000000
 260:	e2833010 	add	r3, r3, #16	; 0x10
 264:	e5933000 	ldr	r3, [r3]
 268:	e2033004 	and	r3, r3, #4	; 0x4
 26c:	e3530000 	cmp	r3, #0	; 0x0
 270:	0afffff9 	beq	25c <putchar+0x10>
 274:	e3a02205 	mov	r2, #1342177280	; 0x50000000
 278:	e2822020 	add	r2, r2, #32	; 0x20
 27c:	e51b3008 	ldr	r3, [fp, #-8]
 280:	e20330ff 	and	r3, r3, #255	; 0xff
 284:	e5c23000 	strb	r3, [r2]
 288:	e28bd000 	add	sp, fp, #0	; 0x0
 28c:	e8bd0800 	pop	{fp}
 290:	e12fff1e 	bx	lr

00000294 <getchar>:
 294:	e52db004 	push	{fp}		; (str fp, [sp, #-4]!)
 298:	e28db000 	add	fp, sp, #0	; 0x0
 29c:	e3a03205 	mov	r3, #1342177280	; 0x50000000
 2a0:	e2833010 	add	r3, r3, #16	; 0x10
 2a4:	e5933000 	ldr	r3, [r3]
 2a8:	e2033001 	and	r3, r3, #1	; 0x1
 2ac:	e3530000 	cmp	r3, #0	; 0x0
 2b0:	0afffff9 	beq	29c <getchar+0x8>
 2b4:	e3a03205 	mov	r3, #1342177280	; 0x50000000
 2b8:	e2833024 	add	r3, r3, #36	; 0x24
 2bc:	e5d33000 	ldrb	r3, [r3]
 2c0:	e20330ff 	and	r3, r3, #255	; 0xff
 2c4:	e1a00003 	mov	r0, r3
 2c8:	e28bd000 	add	sp, fp, #0	; 0x0
 2cc:	e8bd0800 	pop	{fp}
 2d0:	e12fff1e 	bx	lr

000002d4 <puts>:
 2d4:	e92d4800 	push	{fp, lr}
 2d8:	e28db004 	add	fp, sp, #4	; 0x4
 2dc:	e24dd008 	sub	sp, sp, #8	; 0x8
 2e0:	e50b0008 	str	r0, [fp, #-8]
 2e4:	ea000006 	b	304 <puts+0x30>
 2e8:	e51b3008 	ldr	r3, [fp, #-8]
 2ec:	e5d33000 	ldrb	r3, [r3]
 2f0:	e1a00003 	mov	r0, r3
 2f4:	ebffffd4 	bl	24c <putchar>
 2f8:	e51b3008 	ldr	r3, [fp, #-8]
 2fc:	e2833001 	add	r3, r3, #1	; 0x1
 300:	e50b3008 	str	r3, [fp, #-8]
 304:	e51b3008 	ldr	r3, [fp, #-8]
 308:	e5d33000 	ldrb	r3, [r3]
 30c:	e3530000 	cmp	r3, #0	; 0x0
 310:	1afffff4 	bne	2e8 <puts+0x14>
 314:	e24bd004 	sub	sp, fp, #4	; 0x4
 318:	e8bd4800 	pop	{fp, lr}
 31c:	e12fff1e 	bx	lr

00000320 <sdram_init>:
 320:	e52db004 	push	{fp}		; (str fp, [sp, #-4]!)
 324:	e28db000 	add	fp, sp, #0	; 0x0
 328:	e3a02312 	mov	r2, #1207959552	; 0x48000000
 32c:	e3a03422 	mov	r3, #570425344	; 0x22000000
 330:	e5823000 	str	r3, [r2]
 334:	e3a02312 	mov	r2, #1207959552	; 0x48000000
 338:	e282201c 	add	r2, r2, #28	; 0x1c
 33c:	e3a03906 	mov	r3, #98304	; 0x18000
 340:	e2833001 	add	r3, r3, #1	; 0x1
 344:	e5823000 	str	r3, [r2]
 348:	e3a02312 	mov	r2, #1207959552	; 0x48000000
 34c:	e2822020 	add	r2, r2, #32	; 0x20
 350:	e3a03906 	mov	r3, #98304	; 0x18000
 354:	e2833001 	add	r3, r3, #1	; 0x1
 358:	e5823000 	str	r3, [r2]
 35c:	e3a02312 	mov	r2, #1207959552	; 0x48000000
 360:	e2822024 	add	r2, r2, #36	; 0x24
 364:	e3a03721 	mov	r3, #8650752	; 0x840000
 368:	e2833e4f 	add	r3, r3, #1264	; 0x4f0
 36c:	e2833005 	add	r3, r3, #5	; 0x5
 370:	e5823000 	str	r3, [r2]
 374:	e3a03312 	mov	r3, #1207959552	; 0x48000000
 378:	e2833028 	add	r3, r3, #40	; 0x28
 37c:	e3a020b1 	mov	r2, #177	; 0xb1
 380:	e5832000 	str	r2, [r3]
 384:	e3a03312 	mov	r3, #1207959552	; 0x48000000
 388:	e283302c 	add	r3, r3, #44	; 0x2c
 38c:	e3a02020 	mov	r2, #32	; 0x20
 390:	e5832000 	str	r2, [r3]
 394:	e3a03312 	mov	r3, #1207959552	; 0x48000000
 398:	e2833030 	add	r3, r3, #48	; 0x30
 39c:	e3a02020 	mov	r2, #32	; 0x20
 3a0:	e5832000 	str	r2, [r3]
 3a4:	e28bd000 	add	sp, fp, #0	; 0x0
 3a8:	e8bd0800 	pop	{fp}
 3ac:	e12fff1e 	bx	lr

000003b0 <sdram_test>:
 3b0:	e52db004 	push	{fp}		; (str fp, [sp, #-4]!)
 3b4:	e28db000 	add	fp, sp, #0	; 0x0
 3b8:	e24dd014 	sub	sp, sp, #20	; 0x14
 3bc:	e3a03203 	mov	r3, #805306368	; 0x30000000
 3c0:	e50b300c 	str	r3, [fp, #-12]
 3c4:	e3a03000 	mov	r3, #0	; 0x0
 3c8:	e50b3008 	str	r3, [fp, #-8]
 3cc:	ea000007 	b	3f0 <sdram_test+0x40>
 3d0:	e51b2008 	ldr	r2, [fp, #-8]
 3d4:	e51b300c 	ldr	r3, [fp, #-12]
 3d8:	e0832002 	add	r2, r3, r2
 3dc:	e3a03055 	mov	r3, #85	; 0x55
 3e0:	e5c23000 	strb	r3, [r2]
 3e4:	e51b3008 	ldr	r3, [fp, #-8]
 3e8:	e2833001 	add	r3, r3, #1	; 0x1
 3ec:	e50b3008 	str	r3, [fp, #-8]
 3f0:	e51b2008 	ldr	r2, [fp, #-8]
 3f4:	e3a03ff9 	mov	r3, #996	; 0x3e4
 3f8:	e2833003 	add	r3, r3, #3	; 0x3
 3fc:	e1520003 	cmp	r2, r3
 400:	dafffff2 	ble	3d0 <sdram_test+0x20>
 404:	e3a03000 	mov	r3, #0	; 0x0
 408:	e50b3008 	str	r3, [fp, #-8]
 40c:	ea00000c 	b	444 <sdram_test+0x94>
 410:	e51b2008 	ldr	r2, [fp, #-8]
 414:	e51b300c 	ldr	r3, [fp, #-12]
 418:	e0833002 	add	r3, r3, r2
 41c:	e5d33000 	ldrb	r3, [r3]
 420:	e20330ff 	and	r3, r3, #255	; 0xff
 424:	e3530055 	cmp	r3, #85	; 0x55
 428:	0a000002 	beq	438 <sdram_test+0x88>
 42c:	e3e03000 	mvn	r3, #0	; 0x0
 430:	e50b3010 	str	r3, [fp, #-16]
 434:	ea000009 	b	460 <sdram_test+0xb0>
 438:	e51b3008 	ldr	r3, [fp, #-8]
 43c:	e2833001 	add	r3, r3, #1	; 0x1
 440:	e50b3008 	str	r3, [fp, #-8]
 444:	e51b2008 	ldr	r2, [fp, #-8]
 448:	e3a03ff9 	mov	r3, #996	; 0x3e4
 44c:	e2833003 	add	r3, r3, #3	; 0x3
 450:	e1520003 	cmp	r2, r3
 454:	daffffed 	ble	410 <sdram_test+0x60>
 458:	e3a03000 	mov	r3, #0	; 0x0
 45c:	e50b3010 	str	r3, [fp, #-16]
 460:	e51b3010 	ldr	r3, [fp, #-16]
 464:	e1a00003 	mov	r0, r3
 468:	e28bd000 	add	sp, fp, #0	; 0x0
 46c:	e8bd0800 	pop	{fp}
 470:	e12fff1e 	bx	lr

00000474 <main>:
 474:	e92d4800 	push	{fp, lr}
 478:	e28db004 	add	fp, sp, #4	; 0x4
 47c:	ebffff4e 	bl	1bc <uart0_init>
 480:	e59f3058 	ldr	r3, [pc, #88]	; 4e0 <main+0x6c>
 484:	e5d33000 	ldrb	r3, [r3]
 488:	e1a00003 	mov	r0, r3
 48c:	ebffff6e 	bl	24c <putchar>
 490:	e59f3048 	ldr	r3, [pc, #72]	; 4e0 <main+0x6c>
 494:	e5d33000 	ldrb	r3, [r3]
 498:	e2833001 	add	r3, r3, #1	; 0x1
 49c:	e20330ff 	and	r3, r3, #255	; 0xff
 4a0:	e59f2038 	ldr	r2, [pc, #56]	; 4e0 <main+0x6c>
 4a4:	e5c23000 	strb	r3, [r2]
 4a8:	e59f3034 	ldr	r3, [pc, #52]	; 4e4 <main+0x70>
 4ac:	e5d33000 	ldrb	r3, [r3]
 4b0:	e1a00003 	mov	r0, r3
 4b4:	ebffff64 	bl	24c <putchar>
 4b8:	e59f3024 	ldr	r3, [pc, #36]	; 4e4 <main+0x70>
 4bc:	e5d33000 	ldrb	r3, [r3]
 4c0:	e2833001 	add	r3, r3, #1	; 0x1
 4c4:	e20330ff 	and	r3, r3, #255	; 0xff
 4c8:	e59f2014 	ldr	r2, [pc, #20]	; 4e4 <main+0x70>
 4cc:	e5c23000 	strb	r3, [r2]
 4d0:	e3a0093d 	mov	r0, #999424	; 0xf4000
 4d4:	e2800d09 	add	r0, r0, #576	; 0x240
 4d8:	ebfffef2 	bl	a8 <delay>
 4dc:	eaffffe7 	b	480 <main+0xc>
 4e0:	30000000 	.word	0x30000000
 4e4:	30000001 	.word	0x30000001
