
sdram.elf:     file format elf32-littlearm


Disassembly of section .text:

30000000 <_start>:
30000000:	ea00001e 	b	30000080 <reset>
30000004:	e59ff000 	ldr	pc, [pc, #0]	; 3000000c <und_addr>
30000008:	e59ff000 	ldr	pc, [pc, #0]	; 30000010 <swi_addr>

3000000c <und_addr>:
3000000c:	30000014 	.word	0x30000014

30000010 <swi_addr>:
30000010:	30000050 	.word	0x30000050

30000014 <do_und>:
30000014:	e3a0d30d 	mov	sp, #872415232	; 0x34000000
30000018:	e92d5fff 	push	{r0, r1, r2, r3, r4, r5, r6, r7, r8, r9, sl, fp, ip, lr}
3000001c:	e10f0000 	mrs	r0, CPSR
30000020:	e59f10f0 	ldr	r1, [pc, #240]	; 30000118 <halt+0x4>
30000024:	eb000223 	bl	300008b8 <printException>
30000028:	e8fd9fff 	ldm	sp!, {r0, r1, r2, r3, r4, r5, r6, r7, r8, r9, sl, fp, ip, pc}^

3000002c <und_string>:
3000002c:	65646e75 	.word	0x65646e75
30000030:	656e6966 	.word	0x656e6966
30000034:	6e692064 	.word	0x6e692064
30000038:	75727473 	.word	0x75727473
3000003c:	6f697463 	.word	0x6f697463
30000040:	7865206e 	.word	0x7865206e
30000044:	74706563 	.word	0x74706563
30000048:	006e6f69 	.word	0x006e6f69
3000004c:	e1a00000 	nop			(mov r0,r0)

30000050 <do_swi>:
30000050:	e59fd0c4 	ldr	sp, [pc, #196]	; 3000011c <halt+0x8>
30000054:	e92d5fff 	push	{r0, r1, r2, r3, r4, r5, r6, r7, r8, r9, sl, fp, ip, lr}
30000058:	e10f0000 	mrs	r0, CPSR
3000005c:	e59f10bc 	ldr	r1, [pc, #188]	; 30000120 <halt+0xc>
30000060:	eb000214 	bl	300008b8 <printException>
30000064:	e8fd9fff 	ldm	sp!, {r0, r1, r2, r3, r4, r5, r6, r7, r8, r9, sl, fp, ip, pc}^

30000068 <swi_string>:
30000068:	20697773 	.word	0x20697773
3000006c:	65637865 	.word	0x65637865
30000070:	6f697470 	.word	0x6f697470
30000074:	006e      	.short	0x006e
30000076:	0000      	.short	0x0000
30000078:	e1a00000 	nop			(mov r0,r0)
3000007c:	e1a00000 	nop			(mov r0,r0)

30000080 <reset>:
30000080:	e3a00453 	mov	r0, #1392508928	; 0x53000000
30000084:	e3a01000 	mov	r1, #0	; 0x0
30000088:	e5801000 	str	r1, [r0]
3000008c:	e3a00313 	mov	r0, #1275068416	; 0x4c000000
30000090:	e3e01000 	mvn	r1, #0	; 0x0
30000094:	e5801000 	str	r1, [r0]
30000098:	e59f0084 	ldr	r0, [pc, #132]	; 30000124 <halt+0x10>
3000009c:	e3a01005 	mov	r1, #5	; 0x5
300000a0:	e5801000 	str	r1, [r0]
300000a4:	ee110f10 	mrc	15, 0, r0, cr1, cr0, {0}
300000a8:	e3800103 	orr	r0, r0, #-1073741824	; 0xc0000000
300000ac:	ee010f10 	mcr	15, 0, r0, cr1, cr0, {0}
300000b0:	e59f0070 	ldr	r0, [pc, #112]	; 30000128 <halt+0x14>
300000b4:	e59f1070 	ldr	r1, [pc, #112]	; 3000012c <halt+0x18>
300000b8:	e5801000 	str	r1, [r0]
300000bc:	e3a01000 	mov	r1, #0	; 0x0
300000c0:	e5910000 	ldr	r0, [r1]
300000c4:	e5811000 	str	r1, [r1]
300000c8:	e5912000 	ldr	r2, [r1]
300000cc:	e1510002 	cmp	r1, r2
300000d0:	e59fd058 	ldr	sp, [pc, #88]	; 30000130 <halt+0x1c>
300000d4:	03a0da01 	moveq	sp, #4096	; 0x1000
300000d8:	05810000 	streq	r0, [r1]
300000dc:	eb000174 	bl	300006b4 <sdram_init2>
300000e0:	eb000119 	bl	3000054c <copy2sdram>
300000e4:	eb000137 	bl	300005c8 <clean_bss>
300000e8:	e10f0000 	mrs	r0, CPSR
300000ec:	e3c0000f 	bic	r0, r0, #15	; 0xf
300000f0:	e129f000 	msr	CPSR_fc, r0
300000f4:	e59fd038 	ldr	sp, [pc, #56]	; 30000134 <halt+0x20>
300000f8:	e59ff038 	ldr	pc, [pc, #56]	; 30000138 <halt+0x24>

300000fc <sdram>:
300000fc:	eb000054 	bl	30000254 <uart0_init>
30000100:	eb000101 	bl	3000050c <print1>

30000104 <und_code>:
30000104:	03000000 	.word	0x03000000
30000108:	eb000107 	bl	3000052c <print2>
3000010c:	ef000123 	svc	0x00000123
30000110:	e59ff024 	ldr	pc, [pc, #36]	; 3000013c <halt+0x28>

30000114 <halt>:
30000114:	eafffffe 	b	30000114 <halt>
30000118:	3000002c 	.word	0x3000002c
3000011c:	33e00000 	.word	0x33e00000
30000120:	30000068 	.word	0x30000068
30000124:	4c000014 	.word	0x4c000014
30000128:	4c000004 	.word	0x4c000004
3000012c:	0005c011 	.word	0x0005c011
30000130:	40001000 	.word	0x40001000
30000134:	33f00000 	.word	0x33f00000
30000138:	300000fc 	.word	0x300000fc
3000013c:	3000081c 	.word	0x3000081c

30000140 <delay>:
30000140:	e52db004 	push	{fp}		; (str fp, [sp, #-4]!)
30000144:	e28db000 	add	fp, sp, #0	; 0x0
30000148:	e24dd00c 	sub	sp, sp, #12	; 0xc
3000014c:	e50b0008 	str	r0, [fp, #-8]
30000150:	e51b2008 	ldr	r2, [fp, #-8]
30000154:	e3520000 	cmp	r2, #0	; 0x0
30000158:	03a03000 	moveq	r3, #0	; 0x0
3000015c:	13a03001 	movne	r3, #1	; 0x1
30000160:	e20310ff 	and	r1, r3, #255	; 0xff
30000164:	e2423001 	sub	r3, r2, #1	; 0x1
30000168:	e50b3008 	str	r3, [fp, #-8]
3000016c:	e3510000 	cmp	r1, #0	; 0x0
30000170:	1afffff6 	bne	30000150 <delay+0x10>
30000174:	e28bd000 	add	sp, fp, #0	; 0x0
30000178:	e8bd0800 	pop	{fp}
3000017c:	e12fff1e 	bx	lr

30000180 <led_test>:
30000180:	e92d4800 	push	{fp, lr}
30000184:	e28db004 	add	fp, sp, #4	; 0x4
30000188:	e24dd008 	sub	sp, sp, #8	; 0x8
3000018c:	e3a03000 	mov	r3, #0	; 0x0
30000190:	e50b300c 	str	r3, [fp, #-12]
30000194:	e3a02456 	mov	r2, #1442840576	; 0x56000000
30000198:	e2822050 	add	r2, r2, #80	; 0x50
3000019c:	e3a03456 	mov	r3, #1442840576	; 0x56000000
300001a0:	e2833050 	add	r3, r3, #80	; 0x50
300001a4:	e5933000 	ldr	r3, [r3]
300001a8:	e3c33c3f 	bic	r3, r3, #16128	; 0x3f00
300001ac:	e5823000 	str	r3, [r2]
300001b0:	e3a02456 	mov	r2, #1442840576	; 0x56000000
300001b4:	e2822050 	add	r2, r2, #80	; 0x50
300001b8:	e3a03456 	mov	r3, #1442840576	; 0x56000000
300001bc:	e2833050 	add	r3, r3, #80	; 0x50
300001c0:	e5933000 	ldr	r3, [r3]
300001c4:	e3833c15 	orr	r3, r3, #5376	; 0x1500
300001c8:	e5823000 	str	r3, [r2]
300001cc:	e51b300c 	ldr	r3, [fp, #-12]
300001d0:	e1e03003 	mvn	r3, r3
300001d4:	e50b3008 	str	r3, [fp, #-8]
300001d8:	e51b3008 	ldr	r3, [fp, #-8]
300001dc:	e2033007 	and	r3, r3, #7	; 0x7
300001e0:	e50b3008 	str	r3, [fp, #-8]
300001e4:	e3a02456 	mov	r2, #1442840576	; 0x56000000
300001e8:	e2822054 	add	r2, r2, #84	; 0x54
300001ec:	e3a03456 	mov	r3, #1442840576	; 0x56000000
300001f0:	e2833054 	add	r3, r3, #84	; 0x54
300001f4:	e5933000 	ldr	r3, [r3]
300001f8:	e3c33070 	bic	r3, r3, #112	; 0x70
300001fc:	e5823000 	str	r3, [r2]
30000200:	e3a02456 	mov	r2, #1442840576	; 0x56000000
30000204:	e2822054 	add	r2, r2, #84	; 0x54
30000208:	e3a03456 	mov	r3, #1442840576	; 0x56000000
3000020c:	e2833054 	add	r3, r3, #84	; 0x54
30000210:	e5931000 	ldr	r1, [r3]
30000214:	e51b3008 	ldr	r3, [fp, #-8]
30000218:	e1a03203 	lsl	r3, r3, #4
3000021c:	e1813003 	orr	r3, r1, r3
30000220:	e5823000 	str	r3, [r2]
30000224:	e3a00b61 	mov	r0, #99328	; 0x18400
30000228:	e2800e2a 	add	r0, r0, #672	; 0x2a0
3000022c:	ebffffc3 	bl	30000140 <delay>
30000230:	e51b300c 	ldr	r3, [fp, #-12]
30000234:	e2833001 	add	r3, r3, #1	; 0x1
30000238:	e50b300c 	str	r3, [fp, #-12]
3000023c:	e51b300c 	ldr	r3, [fp, #-12]
30000240:	e3530008 	cmp	r3, #8	; 0x8
30000244:	1affffe0 	bne	300001cc <led_test+0x4c>
30000248:	e3a03000 	mov	r3, #0	; 0x0
3000024c:	e50b300c 	str	r3, [fp, #-12]
30000250:	eaffffdd 	b	300001cc <led_test+0x4c>

30000254 <uart0_init>:
30000254:	e52db004 	push	{fp}		; (str fp, [sp, #-4]!)
30000258:	e28db000 	add	fp, sp, #0	; 0x0
3000025c:	e3a02456 	mov	r2, #1442840576	; 0x56000000
30000260:	e2822070 	add	r2, r2, #112	; 0x70
30000264:	e3a03456 	mov	r3, #1442840576	; 0x56000000
30000268:	e2833070 	add	r3, r3, #112	; 0x70
3000026c:	e5933000 	ldr	r3, [r3]
30000270:	e3c330f0 	bic	r3, r3, #240	; 0xf0
30000274:	e5823000 	str	r3, [r2]
30000278:	e3a02456 	mov	r2, #1442840576	; 0x56000000
3000027c:	e2822070 	add	r2, r2, #112	; 0x70
30000280:	e3a03456 	mov	r3, #1442840576	; 0x56000000
30000284:	e2833070 	add	r3, r3, #112	; 0x70
30000288:	e5933000 	ldr	r3, [r3]
3000028c:	e38330a0 	orr	r3, r3, #160	; 0xa0
30000290:	e5823000 	str	r3, [r2]
30000294:	e3a02456 	mov	r2, #1442840576	; 0x56000000
30000298:	e2822078 	add	r2, r2, #120	; 0x78
3000029c:	e3a03456 	mov	r3, #1442840576	; 0x56000000
300002a0:	e2833078 	add	r3, r3, #120	; 0x78
300002a4:	e5933000 	ldr	r3, [r3]
300002a8:	e3c3300c 	bic	r3, r3, #12	; 0xc
300002ac:	e5823000 	str	r3, [r2]
300002b0:	e3a02245 	mov	r2, #1342177284	; 0x50000004
300002b4:	e3a03005 	mov	r3, #5	; 0x5
300002b8:	e5823000 	str	r3, [r2]
300002bc:	e3a03205 	mov	r3, #1342177280	; 0x50000000
300002c0:	e2833028 	add	r3, r3, #40	; 0x28
300002c4:	e3a0201a 	mov	r2, #26	; 0x1a
300002c8:	e5832000 	str	r2, [r3]
300002cc:	e3a02205 	mov	r2, #1342177280	; 0x50000000
300002d0:	e3a03003 	mov	r3, #3	; 0x3
300002d4:	e5823000 	str	r3, [r2]
300002d8:	e28bd000 	add	sp, fp, #0	; 0x0
300002dc:	e8bd0800 	pop	{fp}
300002e0:	e12fff1e 	bx	lr

300002e4 <putchar>:
300002e4:	e52db004 	push	{fp}		; (str fp, [sp, #-4]!)
300002e8:	e28db000 	add	fp, sp, #0	; 0x0
300002ec:	e24dd00c 	sub	sp, sp, #12	; 0xc
300002f0:	e50b0008 	str	r0, [fp, #-8]
300002f4:	e3a03205 	mov	r3, #1342177280	; 0x50000000
300002f8:	e2833010 	add	r3, r3, #16	; 0x10
300002fc:	e5933000 	ldr	r3, [r3]
30000300:	e2033004 	and	r3, r3, #4	; 0x4
30000304:	e3530000 	cmp	r3, #0	; 0x0
30000308:	0afffff9 	beq	300002f4 <putchar+0x10>
3000030c:	e3a02205 	mov	r2, #1342177280	; 0x50000000
30000310:	e2822020 	add	r2, r2, #32	; 0x20
30000314:	e51b3008 	ldr	r3, [fp, #-8]
30000318:	e20330ff 	and	r3, r3, #255	; 0xff
3000031c:	e5c23000 	strb	r3, [r2]
30000320:	e28bd000 	add	sp, fp, #0	; 0x0
30000324:	e8bd0800 	pop	{fp}
30000328:	e12fff1e 	bx	lr

3000032c <getchar>:
3000032c:	e52db004 	push	{fp}		; (str fp, [sp, #-4]!)
30000330:	e28db000 	add	fp, sp, #0	; 0x0
30000334:	e3a03205 	mov	r3, #1342177280	; 0x50000000
30000338:	e2833010 	add	r3, r3, #16	; 0x10
3000033c:	e5933000 	ldr	r3, [r3]
30000340:	e2033001 	and	r3, r3, #1	; 0x1
30000344:	e3530000 	cmp	r3, #0	; 0x0
30000348:	0afffff9 	beq	30000334 <getchar+0x8>
3000034c:	e3a03205 	mov	r3, #1342177280	; 0x50000000
30000350:	e2833024 	add	r3, r3, #36	; 0x24
30000354:	e5d33000 	ldrb	r3, [r3]
30000358:	e20330ff 	and	r3, r3, #255	; 0xff
3000035c:	e1a00003 	mov	r0, r3
30000360:	e28bd000 	add	sp, fp, #0	; 0x0
30000364:	e8bd0800 	pop	{fp}
30000368:	e12fff1e 	bx	lr

3000036c <puts>:
3000036c:	e92d4800 	push	{fp, lr}
30000370:	e28db004 	add	fp, sp, #4	; 0x4
30000374:	e24dd008 	sub	sp, sp, #8	; 0x8
30000378:	e50b0008 	str	r0, [fp, #-8]
3000037c:	ea000006 	b	3000039c <puts+0x30>
30000380:	e51b3008 	ldr	r3, [fp, #-8]
30000384:	e5d33000 	ldrb	r3, [r3]
30000388:	e1a00003 	mov	r0, r3
3000038c:	ebffffd4 	bl	300002e4 <putchar>
30000390:	e51b3008 	ldr	r3, [fp, #-8]
30000394:	e2833001 	add	r3, r3, #1	; 0x1
30000398:	e50b3008 	str	r3, [fp, #-8]
3000039c:	e51b3008 	ldr	r3, [fp, #-8]
300003a0:	e5d33000 	ldrb	r3, [r3]
300003a4:	e3530000 	cmp	r3, #0	; 0x0
300003a8:	1afffff4 	bne	30000380 <puts+0x14>
300003ac:	e24bd004 	sub	sp, fp, #4	; 0x4
300003b0:	e8bd4800 	pop	{fp, lr}
300003b4:	e12fff1e 	bx	lr

300003b8 <printHex>:
300003b8:	e92d4800 	push	{fp, lr}
300003bc:	e28db004 	add	fp, sp, #4	; 0x4
300003c0:	e24dd018 	sub	sp, sp, #24	; 0x18
300003c4:	e50b0018 	str	r0, [fp, #-24]
300003c8:	e3a03000 	mov	r3, #0	; 0x0
300003cc:	e50b3008 	str	r3, [fp, #-8]
300003d0:	ea000010 	b	30000418 <printHex+0x60>
300003d4:	e51b0008 	ldr	r0, [fp, #-8]
300003d8:	e51b3018 	ldr	r3, [fp, #-24]
300003dc:	e20330ff 	and	r3, r3, #255	; 0xff
300003e0:	e1a02003 	mov	r2, r3
300003e4:	e202200f 	and	r2, r2, #15	; 0xf
300003e8:	e3e0100b 	mvn	r1, #11	; 0xb
300003ec:	e24bc004 	sub	ip, fp, #4	; 0x4
300003f0:	e08c3000 	add	r3, ip, r0
300003f4:	e0831001 	add	r1, r3, r1
300003f8:	e1a03002 	mov	r3, r2
300003fc:	e5c13000 	strb	r3, [r1]
30000400:	e51b3018 	ldr	r3, [fp, #-24]
30000404:	e1a03223 	lsr	r3, r3, #4
30000408:	e50b3018 	str	r3, [fp, #-24]
3000040c:	e51b3008 	ldr	r3, [fp, #-8]
30000410:	e2833001 	add	r3, r3, #1	; 0x1
30000414:	e50b3008 	str	r3, [fp, #-8]
30000418:	e51b3008 	ldr	r3, [fp, #-8]
3000041c:	e3530007 	cmp	r3, #7	; 0x7
30000420:	daffffeb 	ble	300003d4 <printHex+0x1c>
30000424:	e59f00dc 	ldr	r0, [pc, #220]	; 30000508 <printHex+0x150>
30000428:	ebffffcf 	bl	3000036c <puts>
3000042c:	e3a03007 	mov	r3, #7	; 0x7
30000430:	e50b3008 	str	r3, [fp, #-8]
30000434:	ea00002d 	b	300004f0 <printHex+0x138>
30000438:	e51b3008 	ldr	r3, [fp, #-8]
3000043c:	e3e0200b 	mvn	r2, #11	; 0xb
30000440:	e24b1004 	sub	r1, fp, #4	; 0x4
30000444:	e0813003 	add	r3, r1, r3
30000448:	e0833002 	add	r3, r3, r2
3000044c:	e5d33000 	ldrb	r3, [r3]
30000450:	e3530009 	cmp	r3, #9	; 0x9
30000454:	8a000009 	bhi	30000480 <printHex+0xc8>
30000458:	e51b3008 	ldr	r3, [fp, #-8]
3000045c:	e3e0200b 	mvn	r2, #11	; 0xb
30000460:	e24bc004 	sub	ip, fp, #4	; 0x4
30000464:	e08c3003 	add	r3, ip, r3
30000468:	e0833002 	add	r3, r3, r2
3000046c:	e5d33000 	ldrb	r3, [r3]
30000470:	e2833030 	add	r3, r3, #48	; 0x30
30000474:	e1a00003 	mov	r0, r3
30000478:	ebffff99 	bl	300002e4 <putchar>
3000047c:	ea000018 	b	300004e4 <printHex+0x12c>
30000480:	e51b3008 	ldr	r3, [fp, #-8]
30000484:	e3e0200b 	mvn	r2, #11	; 0xb
30000488:	e24b1004 	sub	r1, fp, #4	; 0x4
3000048c:	e0813003 	add	r3, r1, r3
30000490:	e0833002 	add	r3, r3, r2
30000494:	e5d33000 	ldrb	r3, [r3]
30000498:	e3530009 	cmp	r3, #9	; 0x9
3000049c:	9a000010 	bls	300004e4 <printHex+0x12c>
300004a0:	e51b3008 	ldr	r3, [fp, #-8]
300004a4:	e3e0200b 	mvn	r2, #11	; 0xb
300004a8:	e24bc004 	sub	ip, fp, #4	; 0x4
300004ac:	e08c3003 	add	r3, ip, r3
300004b0:	e0833002 	add	r3, r3, r2
300004b4:	e5d33000 	ldrb	r3, [r3]
300004b8:	e353000f 	cmp	r3, #15	; 0xf
300004bc:	8a000008 	bhi	300004e4 <printHex+0x12c>
300004c0:	e51b3008 	ldr	r3, [fp, #-8]
300004c4:	e3e0200b 	mvn	r2, #11	; 0xb
300004c8:	e24b1004 	sub	r1, fp, #4	; 0x4
300004cc:	e0813003 	add	r3, r1, r3
300004d0:	e0833002 	add	r3, r3, r2
300004d4:	e5d33000 	ldrb	r3, [r3]
300004d8:	e2833037 	add	r3, r3, #55	; 0x37
300004dc:	e1a00003 	mov	r0, r3
300004e0:	ebffff7f 	bl	300002e4 <putchar>
300004e4:	e51b3008 	ldr	r3, [fp, #-8]
300004e8:	e2433001 	sub	r3, r3, #1	; 0x1
300004ec:	e50b3008 	str	r3, [fp, #-8]
300004f0:	e51b3008 	ldr	r3, [fp, #-8]
300004f4:	e3530000 	cmp	r3, #0	; 0x0
300004f8:	aaffffce 	bge	30000438 <printHex+0x80>
300004fc:	e24bd004 	sub	sp, fp, #4	; 0x4
30000500:	e8bd4800 	pop	{fp, lr}
30000504:	e12fff1e 	bx	lr
30000508:	3000090c 	.word	0x3000090c

3000050c <print1>:
3000050c:	e92d4800 	push	{fp, lr}
30000510:	e28db004 	add	fp, sp, #4	; 0x4
30000514:	e59f000c 	ldr	r0, [pc, #12]	; 30000528 <print1+0x1c>
30000518:	ebffff93 	bl	3000036c <puts>
3000051c:	e24bd004 	sub	sp, fp, #4	; 0x4
30000520:	e8bd4800 	pop	{fp, lr}
30000524:	e12fff1e 	bx	lr
30000528:	30000910 	.word	0x30000910

3000052c <print2>:
3000052c:	e92d4800 	push	{fp, lr}
30000530:	e28db004 	add	fp, sp, #4	; 0x4
30000534:	e59f000c 	ldr	r0, [pc, #12]	; 30000548 <print2+0x1c>
30000538:	ebffff8b 	bl	3000036c <puts>
3000053c:	e24bd004 	sub	sp, fp, #4	; 0x4
30000540:	e8bd4800 	pop	{fp, lr}
30000544:	e12fff1e 	bx	lr
30000548:	30000918 	.word	0x30000918

3000054c <copy2sdram>:
3000054c:	e52db004 	push	{fp}		; (str fp, [sp, #-4]!)
30000550:	e28db000 	add	fp, sp, #0	; 0x0
30000554:	e24dd014 	sub	sp, sp, #20	; 0x14
30000558:	e59f3060 	ldr	r3, [pc, #96]	; 300005c0 <copy2sdram+0x74>
3000055c:	e50b3014 	str	r3, [fp, #-20]
30000560:	e59f305c 	ldr	r3, [pc, #92]	; 300005c4 <copy2sdram+0x78>
30000564:	e50b3010 	str	r3, [fp, #-16]
30000568:	e3a03000 	mov	r3, #0	; 0x0
3000056c:	e50b300c 	str	r3, [fp, #-12]
30000570:	e3a03000 	mov	r3, #0	; 0x0
30000574:	e50b3008 	str	r3, [fp, #-8]
30000578:	ea000009 	b	300005a4 <copy2sdram+0x58>
3000057c:	e51b300c 	ldr	r3, [fp, #-12]
30000580:	e5932000 	ldr	r2, [r3]
30000584:	e51b3014 	ldr	r3, [fp, #-20]
30000588:	e5832000 	str	r2, [r3]
3000058c:	e51b3014 	ldr	r3, [fp, #-20]
30000590:	e2833004 	add	r3, r3, #4	; 0x4
30000594:	e50b3014 	str	r3, [fp, #-20]
30000598:	e51b300c 	ldr	r3, [fp, #-12]
3000059c:	e2833004 	add	r3, r3, #4	; 0x4
300005a0:	e50b300c 	str	r3, [fp, #-12]
300005a4:	e51b2014 	ldr	r2, [fp, #-20]
300005a8:	e51b3010 	ldr	r3, [fp, #-16]
300005ac:	e1520003 	cmp	r2, r3
300005b0:	9afffff1 	bls	3000057c <copy2sdram+0x30>
300005b4:	e28bd000 	add	sp, fp, #0	; 0x0
300005b8:	e8bd0800 	pop	{fp}
300005bc:	e12fff1e 	bx	lr
300005c0:	30000000 	.word	0x30000000
300005c4:	3000098c 	.word	0x3000098c

300005c8 <clean_bss>:
300005c8:	e52db004 	push	{fp}		; (str fp, [sp, #-4]!)
300005cc:	e28db000 	add	fp, sp, #0	; 0x0
300005d0:	e24dd00c 	sub	sp, sp, #12	; 0xc
300005d4:	e59f3040 	ldr	r3, [pc, #64]	; 3000061c <clean_bss+0x54>
300005d8:	e50b300c 	str	r3, [fp, #-12]
300005dc:	e59f303c 	ldr	r3, [pc, #60]	; 30000620 <clean_bss+0x58>
300005e0:	e50b3008 	str	r3, [fp, #-8]
300005e4:	ea000005 	b	30000600 <clean_bss+0x38>
300005e8:	e51b200c 	ldr	r2, [fp, #-12]
300005ec:	e3a03000 	mov	r3, #0	; 0x0
300005f0:	e5823000 	str	r3, [r2]
300005f4:	e51b300c 	ldr	r3, [fp, #-12]
300005f8:	e2833004 	add	r3, r3, #4	; 0x4
300005fc:	e50b300c 	str	r3, [fp, #-12]
30000600:	e51b200c 	ldr	r2, [fp, #-12]
30000604:	e51b3008 	ldr	r3, [fp, #-8]
30000608:	e1520003 	cmp	r2, r3
3000060c:	9afffff5 	bls	300005e8 <clean_bss+0x20>
30000610:	e28bd000 	add	sp, fp, #0	; 0x0
30000614:	e8bd0800 	pop	{fp}
30000618:	e12fff1e 	bx	lr
3000061c:	3000098c 	.word	0x3000098c
30000620:	30000994 	.word	0x30000994

30000624 <sdram_init>:
30000624:	e52db004 	push	{fp}		; (str fp, [sp, #-4]!)
30000628:	e28db000 	add	fp, sp, #0	; 0x0
3000062c:	e3a02312 	mov	r2, #1207959552	; 0x48000000
30000630:	e3a03422 	mov	r3, #570425344	; 0x22000000
30000634:	e5823000 	str	r3, [r2]
30000638:	e3a02312 	mov	r2, #1207959552	; 0x48000000
3000063c:	e282201c 	add	r2, r2, #28	; 0x1c
30000640:	e3a03906 	mov	r3, #98304	; 0x18000
30000644:	e2833001 	add	r3, r3, #1	; 0x1
30000648:	e5823000 	str	r3, [r2]
3000064c:	e3a02312 	mov	r2, #1207959552	; 0x48000000
30000650:	e2822020 	add	r2, r2, #32	; 0x20
30000654:	e3a03906 	mov	r3, #98304	; 0x18000
30000658:	e2833001 	add	r3, r3, #1	; 0x1
3000065c:	e5823000 	str	r3, [r2]
30000660:	e3a02312 	mov	r2, #1207959552	; 0x48000000
30000664:	e2822024 	add	r2, r2, #36	; 0x24
30000668:	e3a03721 	mov	r3, #8650752	; 0x840000
3000066c:	e2833e4f 	add	r3, r3, #1264	; 0x4f0
30000670:	e2833005 	add	r3, r3, #5	; 0x5
30000674:	e5823000 	str	r3, [r2]
30000678:	e3a03312 	mov	r3, #1207959552	; 0x48000000
3000067c:	e2833028 	add	r3, r3, #40	; 0x28
30000680:	e3a020b1 	mov	r2, #177	; 0xb1
30000684:	e5832000 	str	r2, [r3]
30000688:	e3a03312 	mov	r3, #1207959552	; 0x48000000
3000068c:	e283302c 	add	r3, r3, #44	; 0x2c
30000690:	e3a02020 	mov	r2, #32	; 0x20
30000694:	e5832000 	str	r2, [r3]
30000698:	e3a03312 	mov	r3, #1207959552	; 0x48000000
3000069c:	e2833030 	add	r3, r3, #48	; 0x30
300006a0:	e3a02020 	mov	r2, #32	; 0x20
300006a4:	e5832000 	str	r2, [r3]
300006a8:	e28bd000 	add	sp, fp, #0	; 0x0
300006ac:	e8bd0800 	pop	{fp}
300006b0:	e12fff1e 	bx	lr

300006b4 <sdram_init2>:
300006b4:	e92d0810 	push	{r4, fp}
300006b8:	e28db004 	add	fp, sp, #4	; 0x4
300006bc:	e24dd040 	sub	sp, sp, #64	; 0x40
300006c0:	e59f308c 	ldr	r3, [pc, #140]	; 30000754 <sdram_init2+0xa0>
300006c4:	e24b4040 	sub	r4, fp, #64	; 0x40
300006c8:	e1a0c003 	mov	ip, r3
300006cc:	e8bc000f 	ldm	ip!, {r0, r1, r2, r3}
300006d0:	e8a4000f 	stmia	r4!, {r0, r1, r2, r3}
300006d4:	e8bc000f 	ldm	ip!, {r0, r1, r2, r3}
300006d8:	e8a4000f 	stmia	r4!, {r0, r1, r2, r3}
300006dc:	e8bc000f 	ldm	ip!, {r0, r1, r2, r3}
300006e0:	e8a4000f 	stmia	r4!, {r0, r1, r2, r3}
300006e4:	e59c3000 	ldr	r3, [ip]
300006e8:	e5843000 	str	r3, [r4]
300006ec:	e3a03312 	mov	r3, #1207959552	; 0x48000000
300006f0:	e50b300c 	str	r3, [fp, #-12]
300006f4:	e3a03000 	mov	r3, #0	; 0x0
300006f8:	e50b3008 	str	r3, [fp, #-8]
300006fc:	ea00000e 	b	3000073c <sdram_init2+0x88>
30000700:	e51b3008 	ldr	r3, [fp, #-8]
30000704:	e3e0203b 	mvn	r2, #59	; 0x3b
30000708:	e1a03103 	lsl	r3, r3, #2
3000070c:	e24b1004 	sub	r1, fp, #4	; 0x4
30000710:	e0813003 	add	r3, r1, r3
30000714:	e0833002 	add	r3, r3, r2
30000718:	e5932000 	ldr	r2, [r3]
3000071c:	e51b300c 	ldr	r3, [fp, #-12]
30000720:	e5832000 	str	r2, [r3]
30000724:	e51b300c 	ldr	r3, [fp, #-12]
30000728:	e2833004 	add	r3, r3, #4	; 0x4
3000072c:	e50b300c 	str	r3, [fp, #-12]
30000730:	e51b3008 	ldr	r3, [fp, #-8]
30000734:	e2833001 	add	r3, r3, #1	; 0x1
30000738:	e50b3008 	str	r3, [fp, #-8]
3000073c:	e51b3008 	ldr	r3, [fp, #-8]
30000740:	e353000c 	cmp	r3, #12	; 0xc
30000744:	daffffed 	ble	30000700 <sdram_init2+0x4c>
30000748:	e24bd004 	sub	sp, fp, #4	; 0x4
3000074c:	e8bd0810 	pop	{r4, fp}
30000750:	e12fff1e 	bx	lr
30000754:	30000920 	.word	0x30000920

30000758 <sdram_test>:
30000758:	e52db004 	push	{fp}		; (str fp, [sp, #-4]!)
3000075c:	e28db000 	add	fp, sp, #0	; 0x0
30000760:	e24dd014 	sub	sp, sp, #20	; 0x14
30000764:	e3a03203 	mov	r3, #805306368	; 0x30000000
30000768:	e50b300c 	str	r3, [fp, #-12]
3000076c:	e3a03000 	mov	r3, #0	; 0x0
30000770:	e50b3008 	str	r3, [fp, #-8]
30000774:	ea000007 	b	30000798 <sdram_test+0x40>
30000778:	e51b2008 	ldr	r2, [fp, #-8]
3000077c:	e51b300c 	ldr	r3, [fp, #-12]
30000780:	e0832002 	add	r2, r3, r2
30000784:	e3a03055 	mov	r3, #85	; 0x55
30000788:	e5c23000 	strb	r3, [r2]
3000078c:	e51b3008 	ldr	r3, [fp, #-8]
30000790:	e2833001 	add	r3, r3, #1	; 0x1
30000794:	e50b3008 	str	r3, [fp, #-8]
30000798:	e51b2008 	ldr	r2, [fp, #-8]
3000079c:	e3a03ff9 	mov	r3, #996	; 0x3e4
300007a0:	e2833003 	add	r3, r3, #3	; 0x3
300007a4:	e1520003 	cmp	r2, r3
300007a8:	dafffff2 	ble	30000778 <sdram_test+0x20>
300007ac:	e3a03000 	mov	r3, #0	; 0x0
300007b0:	e50b3008 	str	r3, [fp, #-8]
300007b4:	ea00000c 	b	300007ec <sdram_test+0x94>
300007b8:	e51b2008 	ldr	r2, [fp, #-8]
300007bc:	e51b300c 	ldr	r3, [fp, #-12]
300007c0:	e0833002 	add	r3, r3, r2
300007c4:	e5d33000 	ldrb	r3, [r3]
300007c8:	e20330ff 	and	r3, r3, #255	; 0xff
300007cc:	e3530055 	cmp	r3, #85	; 0x55
300007d0:	0a000002 	beq	300007e0 <sdram_test+0x88>
300007d4:	e3e03000 	mvn	r3, #0	; 0x0
300007d8:	e50b3010 	str	r3, [fp, #-16]
300007dc:	ea000009 	b	30000808 <sdram_test+0xb0>
300007e0:	e51b3008 	ldr	r3, [fp, #-8]
300007e4:	e2833001 	add	r3, r3, #1	; 0x1
300007e8:	e50b3008 	str	r3, [fp, #-8]
300007ec:	e51b2008 	ldr	r2, [fp, #-8]
300007f0:	e3a03ff9 	mov	r3, #996	; 0x3e4
300007f4:	e2833003 	add	r3, r3, #3	; 0x3
300007f8:	e1520003 	cmp	r2, r3
300007fc:	daffffed 	ble	300007b8 <sdram_test+0x60>
30000800:	e3a03000 	mov	r3, #0	; 0x0
30000804:	e50b3010 	str	r3, [fp, #-16]
30000808:	e51b3010 	ldr	r3, [fp, #-16]
3000080c:	e1a00003 	mov	r0, r3
30000810:	e28bd000 	add	sp, fp, #0	; 0x0
30000814:	e8bd0800 	pop	{fp}
30000818:	e12fff1e 	bx	lr

3000081c <main>:
3000081c:	e92d4800 	push	{fp, lr}
30000820:	e28db004 	add	fp, sp, #4	; 0x4
30000824:	e59f0078 	ldr	r0, [pc, #120]	; 300008a4 <main+0x88>
30000828:	ebfffecf 	bl	3000036c <puts>
3000082c:	e59f3074 	ldr	r3, [pc, #116]	; 300008a8 <main+0x8c>
30000830:	e5933000 	ldr	r3, [r3]
30000834:	e1a00003 	mov	r0, r3
30000838:	ebfffede 	bl	300003b8 <printHex>
3000083c:	e59f0068 	ldr	r0, [pc, #104]	; 300008ac <main+0x90>
30000840:	ebfffec9 	bl	3000036c <puts>
30000844:	e59f3064 	ldr	r3, [pc, #100]	; 300008b0 <main+0x94>
30000848:	e5d33000 	ldrb	r3, [r3]
3000084c:	e1a00003 	mov	r0, r3
30000850:	ebfffea3 	bl	300002e4 <putchar>
30000854:	e59f3054 	ldr	r3, [pc, #84]	; 300008b0 <main+0x94>
30000858:	e5d33000 	ldrb	r3, [r3]
3000085c:	e2833001 	add	r3, r3, #1	; 0x1
30000860:	e20330ff 	and	r3, r3, #255	; 0xff
30000864:	e59f2044 	ldr	r2, [pc, #68]	; 300008b0 <main+0x94>
30000868:	e5c23000 	strb	r3, [r2]
3000086c:	e59f3040 	ldr	r3, [pc, #64]	; 300008b4 <main+0x98>
30000870:	e5d33000 	ldrb	r3, [r3]
30000874:	e1a00003 	mov	r0, r3
30000878:	ebfffe99 	bl	300002e4 <putchar>
3000087c:	e59f3030 	ldr	r3, [pc, #48]	; 300008b4 <main+0x98>
30000880:	e5d33000 	ldrb	r3, [r3]
30000884:	e2833001 	add	r3, r3, #1	; 0x1
30000888:	e20330ff 	and	r3, r3, #255	; 0xff
3000088c:	e59f2020 	ldr	r2, [pc, #32]	; 300008b4 <main+0x98>
30000890:	e5c23000 	strb	r3, [r2]
30000894:	e3a0093d 	mov	r0, #999424	; 0xf4000
30000898:	e2800d09 	add	r0, r0, #576	; 0x240
3000089c:	ebfffe27 	bl	30000140 <delay>
300008a0:	eaffffe7 	b	30000844 <main+0x28>
300008a4:	30000958 	.word	0x30000958
300008a8:	3000098c 	.word	0x3000098c
300008ac:	30000964 	.word	0x30000964
300008b0:	30000988 	.word	0x30000988
300008b4:	30000989 	.word	0x30000989

300008b8 <printException>:
300008b8:	e92d4800 	push	{fp, lr}
300008bc:	e28db004 	add	fp, sp, #4	; 0x4
300008c0:	e24dd008 	sub	sp, sp, #8	; 0x8
300008c4:	e50b0008 	str	r0, [fp, #-8]
300008c8:	e50b100c 	str	r1, [fp, #-12]
300008cc:	e59f002c 	ldr	r0, [pc, #44]	; 30000900 <printException+0x48>
300008d0:	ebfffea5 	bl	3000036c <puts>
300008d4:	e51b0008 	ldr	r0, [fp, #-8]
300008d8:	ebfffeb6 	bl	300003b8 <printHex>
300008dc:	e59f0020 	ldr	r0, [pc, #32]	; 30000904 <printException+0x4c>
300008e0:	ebfffea1 	bl	3000036c <puts>
300008e4:	e51b000c 	ldr	r0, [fp, #-12]
300008e8:	ebfffe9f 	bl	3000036c <puts>
300008ec:	e59f0014 	ldr	r0, [pc, #20]	; 30000908 <printException+0x50>
300008f0:	ebfffe9d 	bl	3000036c <puts>
300008f4:	e24bd004 	sub	sp, fp, #4	; 0x4
300008f8:	e8bd4800 	pop	{fp, lr}
300008fc:	e12fff1e 	bx	lr
30000900:	30000968 	.word	0x30000968
30000904:	30000980 	.word	0x30000980
30000908:	30000984 	.word	0x30000984

Disassembly of section .rodata:

3000090c <C.0.1287-0x14>:
3000090c:	00007830 	.word	0x00007830
30000910:	0a636261 	.word	0x0a636261
30000914:	0000000d 	.word	0x0000000d
30000918:	0a333231 	.word	0x0a333231
3000091c:	0000000d 	.word	0x0000000d

30000920 <C.0.1287>:
30000920:	22000000 	.word	0x22000000
30000924:	00000700 	.word	0x00000700
30000928:	00000700 	.word	0x00000700
3000092c:	00000700 	.word	0x00000700
30000930:	00000700 	.word	0x00000700
30000934:	00000700 	.word	0x00000700
30000938:	00000700 	.word	0x00000700
3000093c:	00018001 	.word	0x00018001
30000940:	00018001 	.word	0x00018001
30000944:	008404f5 	.word	0x008404f5
30000948:	000000b1 	.word	0x000000b1
3000094c:	00000020 	.word	0x00000020
30000950:	00000020 	.word	0x00000020

30000954 <g_char2>:
30000954:	00000042 	.word	0x00000042
30000958:	5f670d0a 	.word	0x5f670d0a
3000095c:	203d2041 	.word	0x203d2041
30000960:	00000000 	.word	0x00000000
30000964:	00000d0a 	.word	0x00000d0a
30000968:	65637845 	.word	0x65637845
3000096c:	6f697470 	.word	0x6f697470
30000970:	81bcef6e 	.word	0x81bcef6e
30000974:	73706320 	.word	0x73706320
30000978:	203d2072 	.word	0x203d2072
3000097c:	00000000 	.word	0x00000000
30000980:	00000020 	.word	0x00000020
30000984:	00000d0a 	.word	0x00000d0a

Disassembly of section .data:

30000988 <g_char>:
30000988:	41          	.byte	0x41

30000989 <g_char3>:
30000989:	61          	.byte	0x61

Disassembly of section .bss:

3000098c <g_A>:
3000098c:	00000000 	.word	0x00000000

30000990 <g_B>:
30000990:	00000000 	.word	0x00000000

Disassembly of section .ARM.attributes:

00000000 <.ARM.attributes>:
   0:	00002541 	andeq	r2, r0, r1, asr #10
   4:	61656100 	cmnvs	r5, r0, lsl #2
   8:	01006962 	tsteq	r0, r2, ror #18
   c:	0000001b 	andeq	r0, r0, fp, lsl r0
  10:	00543405 	subseq	r3, r4, r5, lsl #8
  14:	01080206 	tsteq	r8, r6, lsl #4
  18:	04120109 	ldreq	r0, [r2], #-265
  1c:	01150114 	tsteq	r5, r4, lsl r1
  20:	01180317 	tsteq	r8, r7, lsl r3
  24:	Address 0x00000024 is out of bounds.


Disassembly of section .comment:

00000000 <.comment>:
   0:	43434700 	movtmi	r4, #14080	; 0x3700
   4:	5328203a 	.word	0x5328203a
   8:	6372756f 	.word	0x6372756f
   c:	20797265 	.word	0x20797265
  10:	202b2b47 	.word	0x202b2b47
  14:	6574694c 	.word	0x6574694c
  18:	30303220 	.word	0x30303220
  1c:	2d317139 	.word	0x2d317139
  20:	29363731 	.word	0x29363731
  24:	332e3420 	.word	0x332e3420
  28:	0000332e 	.word	0x0000332e
  2c:	3a434347 	.word	0x3a434347
  30:	6f532820 	.word	0x6f532820
  34:	65637275 	.word	0x65637275
  38:	47207972 	.word	0x47207972
  3c:	4c202b2b 	.word	0x4c202b2b
  40:	20657469 	.word	0x20657469
  44:	39303032 	.word	0x39303032
  48:	312d3171 	.word	0x312d3171
  4c:	20293637 	.word	0x20293637
  50:	2e332e34 	.word	0x2e332e34
  54:	0033      	.short	0x0033
  56:	00          	.byte	0x00
  57:	47          	.byte	0x47
  58:	203a4343 	.word	0x203a4343
  5c:	756f5328 	.word	0x756f5328
  60:	72656372 	.word	0x72656372
  64:	2b472079 	.word	0x2b472079
  68:	694c202b 	.word	0x694c202b
  6c:	32206574 	.word	0x32206574
  70:	71393030 	.word	0x71393030
  74:	37312d31 	.word	0x37312d31
  78:	34202936 	.word	0x34202936
  7c:	332e332e 	.word	0x332e332e
  80:	43470000 	.word	0x43470000
  84:	28203a43 	.word	0x28203a43
  88:	72756f53 	.word	0x72756f53
  8c:	79726563 	.word	0x79726563
  90:	2b2b4720 	.word	0x2b2b4720
  94:	74694c20 	.word	0x74694c20
  98:	30322065 	.word	0x30322065
  9c:	31713930 	.word	0x31713930
  a0:	3637312d 	.word	0x3637312d
  a4:	2e342029 	.word	0x2e342029
  a8:	00332e33 	.word	0x00332e33
  ac:	43434700 	.word	0x43434700
  b0:	5328203a 	.word	0x5328203a
  b4:	6372756f 	.word	0x6372756f
  b8:	20797265 	.word	0x20797265
  bc:	202b2b47 	.word	0x202b2b47
  c0:	6574694c 	.word	0x6574694c
  c4:	30303220 	.word	0x30303220
  c8:	2d317139 	.word	0x2d317139
  cc:	29363731 	.word	0x29363731
  d0:	332e3420 	.word	0x332e3420
  d4:	Address 0x000000d4 is out of bounds.

